; Function Attrs: mustprogress uwtable
define hidden noundef zeroext i1 @_ZN6google8protobuf10TextFormat5MergeEPNS0_2io19ZeroCopyInputStreamEPNS0_7MessageE(ptr noundef %0, ptr noundef %1) local_unnamed_addr #3 align 2 personality ptr @__gxx_personality_v0 {
  %3 = alloca %"class.google::protobuf::TextFormat::Parser", align 8
  call void @llvm.lifetime.start.p0(i64 40, ptr nonnull %3) #31
  %4 = getelementptr inbounds nuw i8, ptr %3, i64 32
  call void @llvm.memset.p0.i64(ptr noundef nonnull align 8 dereferenceable(36) %3, i8 0, i64 32, i1 false)
  store i32 2147483647, ptr %4, align 8, !tbaa !137
  %5 = call noundef zeroext i1 @_ZN6google8protobuf10TextFormat6Parser5MergeEPNS0_2io19ZeroCopyInputStreamEPNS0_7MessageE(ptr noundef nonnull align 8 dereferenceable(36) %3, ptr noundef %0, ptr noundef %1)
  call void @llvm.lifetime.end.p0(i64 40, ptr nonnull %3) #31
  ret i1 %5
}